target datalayout = "e-m:e-p270:32:32-p271:32:32-p272:64:64-i64:64-i128:128-f80:128-n8:16:32:64-S128"
target triple = "x86_64-pc-linux-gnu"

%struct.archive_read = type { %struct.archive, ptr, i32, i64, i64, %struct.archive_read_client, [16 x %struct.archive_read_filter_bidder], ptr, i32, i64, i32, i32, [16 x %struct.archive_format_descriptor], ptr, ptr, ptr, %struct.anon }
%struct.archive = type { i32, i32, ptr, i32, ptr, i32, i32, ptr, %struct.archive_string, ptr, i32, i32, ptr, ptr, i64, i64, i64, i8, i64 }
%struct.archive_string = type { ptr, i64, i64 }
%struct.archive_read_client = type { ptr, ptr, ptr, ptr, ptr, ptr, i32, i32, i64, ptr }
%struct.archive_read_filter_bidder = type { ptr, ptr, ptr }
%struct.archive_format_descriptor = type { ptr, ptr, ptr, ptr, ptr, ptr, ptr, ptr, ptr, ptr, ptr }
%struct.anon = type { ptr, ptr, i32, ptr, ptr }

@.str.54 = private unnamed_addr constant [43 x i8] c"Lzma library error: Cannot allocate memory\00", align 1
@.str.55 = private unnamed_addr constant [34 x i8] c"Lzma library error: Out of memory\00", align 1
@.str.56 = private unnamed_addr constant [42 x i8] c"Lzma library error: format not recognized\00", align 1
@.str.57 = private unnamed_addr constant [36 x i8] c"Lzma library error: Invalid options\00", align 1
@.str.58 = private unnamed_addr constant [41 x i8] c"Lzma library error: Corrupted input data\00", align 1
@.str.59 = private unnamed_addr constant [45 x i8] c"Lzma library error:  No progress is possible\00", align 1
@.str.60 = private unnamed_addr constant [42 x i8] c"Lzma decompression failed:  Unknown error\00", align 1

; Function Attrs: nounwind uwtable
define internal void @set_error(ptr noundef %0, i32 noundef %1) #0 {
  %3 = alloca ptr, align 8
  %4 = alloca i32, align 4
  store ptr %0, ptr %3, align 8, !tbaa !9
  store i32 %1, ptr %4, align 4, !tbaa !11
  %5 = load i32, ptr %4, align 4, !tbaa !11
  switch i32 %5, label %25 [
    i32 1, label %6
    i32 0, label %6
    i32 5, label %7
    i32 6, label %10
    i32 7, label %13
    i32 8, label %16
    i32 9, label %19
    i32 10, label %22
  ]

6:                                                ; preds = %2, %2
  br label %28

7:                                                ; preds = %2
  %8 = load ptr, ptr %3, align 8, !tbaa !9
  %9 = getelementptr inbounds nuw %struct.archive_read, ptr %8, i32 0, i32 0
  call void (ptr, i32, ptr, ...) @archive_set_error(ptr noundef %9, i32 noundef 12, ptr noundef @.str.54)
  br label %28

10:                                               ; preds = %2
  %11 = load ptr, ptr %3, align 8, !tbaa !9
  %12 = getelementptr inbounds nuw %struct.archive_read, ptr %11, i32 0, i32 0
  call void (ptr, i32, ptr, ...) @archive_set_error(ptr noundef %12, i32 noundef 12, ptr noundef @.str.55)
  br label %28

13:                                               ; preds = %2
  %14 = load ptr, ptr %3, align 8, !tbaa !9
  %15 = getelementptr inbounds nuw %struct.archive_read, ptr %14, i32 0, i32 0
  call void (ptr, i32, ptr, ...) @archive_set_error(ptr noundef %15, i32 noundef -1, ptr noundef @.str.56)
  br label %28

16:                                               ; preds = %2
  %17 = load ptr, ptr %3, align 8, !tbaa !9
  %18 = getelementptr inbounds nuw %struct.archive_read, ptr %17, i32 0, i32 0
  call void (ptr, i32, ptr, ...) @archive_set_error(ptr noundef %18, i32 noundef -1, ptr noundef @.str.57)
  br label %28

19:                                               ; preds = %2
  %20 = load ptr, ptr %3, align 8, !tbaa !9
  %21 = getelementptr inbounds nuw %struct.archive_read, ptr %20, i32 0, i32 0
  call void (ptr, i32, ptr, ...) @archive_set_error(ptr noundef %21, i32 noundef -1, ptr noundef @.str.58)
  br label %28

22:                                               ; preds = %2
  %23 = load ptr, ptr %3, align 8, !tbaa !9
  %24 = getelementptr inbounds nuw %struct.archive_read, ptr %23, i32 0, i32 0
  call void (ptr, i32, ptr, ...) @archive_set_error(ptr noundef %24, i32 noundef -1, ptr noundef @.str.59)
  br label %28

25:                                               ; preds = %2
  %26 = load ptr, ptr %3, align 8, !tbaa !9
  %27 = getelementptr inbounds nuw %struct.archive_read, ptr %26, i32 0, i32 0
  call void (ptr, i32, ptr, ...) @archive_set_error(ptr noundef %27, i32 noundef -1, ptr noundef @.str.60)
  br label %28

28:                                               ; preds = %25, %22, %19, %16, %13, %10, %7, %6
  ret void
}