; Function Attrs: nounwind uwtable
define internal fastcc void @set_error(ptr noundef %0, i32 noundef range(i32 1, 0) %1) unnamed_addr #0 {
  switch i32 %1, label %9 [
    i32 1, label %10
    i32 10, label %8
    i32 5, label %3
    i32 6, label %4
    i32 7, label %5
    i32 8, label %6
    i32 9, label %7
  ]

3:                                                ; preds = %2
  tail call void (ptr, i32, ptr, ...) @archive_set_error(ptr noundef %0, i32 noundef 12, ptr noundef nonnull @.str.54) #17
  br label %10

4:                                                ; preds = %2
  tail call void (ptr, i32, ptr, ...) @archive_set_error(ptr noundef %0, i32 noundef 12, ptr noundef nonnull @.str.55) #17
  br label %10

5:                                                ; preds = %2
  tail call void (ptr, i32, ptr, ...) @archive_set_error(ptr noundef %0, i32 noundef -1, ptr noundef nonnull @.str.56) #17
  br label %10

6:                                                ; preds = %2
  tail call void (ptr, i32, ptr, ...) @archive_set_error(ptr noundef %0, i32 noundef -1, ptr noundef nonnull @.str.57) #17
  br label %10

7:                                                ; preds = %2
  tail call void (ptr, i32, ptr, ...) @archive_set_error(ptr noundef %0, i32 noundef -1, ptr noundef nonnull @.str.58) #17
  br label %10

8:                                                ; preds = %2
  tail call void (ptr, i32, ptr, ...) @archive_set_error(ptr noundef %0, i32 noundef -1, ptr noundef nonnull @.str.59) #17
  br label %10

9:                                                ; preds = %2
  tail call void (ptr, i32, ptr, ...) @archive_set_error(ptr noundef %0, i32 noundef -1, ptr noundef nonnull @.str.60) #17
  br label %10

10:                                               ; preds = %2, %9, %8, %7, %6, %5, %4, %3
  ret void
}